; Function Attrs: mustprogress nounwind uwtable
define void @_ZN9grpc_core11ChannelArgsD2Ev(ptr noundef nonnull readonly align 8 captures(none) dereferenceable(8) %0) unnamed_addr #13 align 2 personality ptr @__gxx_personality_v0 {
  %2 = load ptr, ptr %0, align 8, !tbaa !21
  %.not.i.i = icmp eq ptr %2, null
  br i1 %.not.i.i, label %_ZN9grpc_core3AVLINS_21RefCountedStringValueENS_11ChannelArgs5ValueEED2Ev.exit, label %3

3:                                                ; preds = %1
  %4 = atomicrmw sub ptr %2, i64 1 acq_rel, align 8
  %5 = icmp eq i64 %4, 1
  br i1 %5, label %6, label %_ZN9grpc_core3AVLINS_21RefCountedStringValueENS_11ChannelArgs5ValueEED2Ev.exit, !prof !24

6:                                                ; preds = %3
  tail call void @_ZNK9grpc_core11UnrefDeleteclIKNS_3AVLINS_21RefCountedStringValueENS_11ChannelArgs5ValueEE4NodeEEEvPT_(ptr noundef nonnull align 8 dereferenceable(8) %2, ptr noundef nonnull align 8 dereferenceable(8) %2)
  br label %_ZN9grpc_core3AVLINS_21RefCountedStringValueENS_11ChannelArgs5ValueEED2Ev.exit

_ZN9grpc_core3AVLINS_21RefCountedStringValueENS_11ChannelArgs5ValueEED2Ev.exit: ; preds = %1, %3, %6
  ret void
}